target datalayout = "e-m:e-p270:32:32-p271:32:32-p272:64:64-i64:64-i128:128-f80:128-n8:16:32:64-S128"
target triple = "x86_64-pc-linux-gnu"

%struct.PsqlScanStateData = type { ptr, ptr, ptr, ptr, ptr, ptr, i32, i8, i8, ptr, ptr, i32, i32, i32, i32, ptr, i32, [4 x i8], i32, ptr, ptr }
%struct.PsqlScanCallbacks = type { ptr }

; Function Attrs: nounwind uwtable
define dso_local void @psqlscan_emit(ptr noundef %0, ptr noundef %1, i32 noundef %2) #0 {
  %4 = alloca ptr, align 8
  %5 = alloca ptr, align 8
  %6 = alloca i32, align 4
  %7 = alloca ptr, align 8
  %8 = alloca ptr, align 8
  %9 = alloca i32, align 4
  %10 = alloca i8, align 1
  store ptr %0, ptr %4, align 8
  store ptr %1, ptr %5, align 8
  store i32 %2, ptr %6, align 4
  call void @llvm.lifetime.start.p0(i64 8, ptr %7) #12
  %11 = load ptr, ptr %4, align 8
  %12 = getelementptr inbounds nuw %struct.PsqlScanStateData, ptr %11, i32 0, i32 1
  %13 = load ptr, ptr %12, align 8
  store ptr %13, ptr %7, align 8
  %14 = load ptr, ptr %4, align 8
  %15 = getelementptr inbounds nuw %struct.PsqlScanStateData, ptr %14, i32 0, i32 7
  %16 = load i8, ptr %15, align 4, !range !6, !noundef !7
  %17 = trunc i8 %16 to i1
  br i1 %17, label %18, label %23

18:                                               ; preds = %3
  %19 = load ptr, ptr %7, align 8
  %20 = load ptr, ptr %5, align 8
  %21 = load i32, ptr %6, align 4
  %22 = sext i32 %21 to i64
  call void @appendBinaryPQExpBuffer(ptr noundef %19, ptr noundef %20, i64 noundef %22)
  br label %62

23:                                               ; preds = %3
  call void @llvm.lifetime.start.p0(i64 8, ptr %8) #12
  %24 = load ptr, ptr %4, align 8
  %25 = getelementptr inbounds nuw %struct.PsqlScanStateData, ptr %24, i32 0, i32 10
  %26 = load ptr, ptr %25, align 8
  store ptr %26, ptr %8, align 8
  call void @llvm.lifetime.start.p0(i64 4, ptr %9) #12
  %27 = load ptr, ptr %5, align 8
  %28 = load ptr, ptr %4, align 8
  %29 = getelementptr inbounds nuw %struct.PsqlScanStateData, ptr %28, i32 0, i32 9
  %30 = load ptr, ptr %29, align 8
  %31 = ptrtoint ptr %27 to i64
  %32 = ptrtoint ptr %30 to i64
  %33 = sub i64 %31, %32
  %34 = load ptr, ptr %8, align 8
  %35 = getelementptr inbounds i8, ptr %34, i64 %33
  store ptr %35, ptr %8, align 8
  store i32 0, ptr %9, align 4
  br label %36

36:                                               ; preds = %58, %23
  %37 = load i32, ptr %9, align 4
  %38 = load i32, ptr %6, align 4
  %39 = icmp slt i32 %37, %38
  br i1 %39, label %40, label %61

40:                                               ; preds = %36
  call void @llvm.lifetime.start.p0(i64 1, ptr %10) #12
  %41 = load ptr, ptr %5, align 8
  %42 = load i32, ptr %9, align 4
  %43 = sext i32 %42 to i64
  %44 = getelementptr inbounds i8, ptr %41, i64 %43
  %45 = load i8, ptr %44, align 1
  store i8 %45, ptr %10, align 1
  %46 = load i8, ptr %10, align 1
  %47 = sext i8 %46 to i32
  %48 = icmp eq i32 %47, -1
  br i1 %48, label %49, label %55

49:                                               ; preds = %40
  %50 = load ptr, ptr %8, align 8
  %51 = load i32, ptr %9, align 4
  %52 = sext i32 %51 to i64
  %53 = getelementptr inbounds i8, ptr %50, i64 %52
  %54 = load i8, ptr %53, align 1
  store i8 %54, ptr %10, align 1
  br label %55

55:                                               ; preds = %49, %40
  %56 = load ptr, ptr %7, align 8
  %57 = load i8, ptr %10, align 1
  call void @appendPQExpBufferChar(ptr noundef %56, i8 noundef signext %57)
  call void @llvm.lifetime.end.p0(i64 1, ptr %10) #12
  br label %58

58:                                               ; preds = %55
  %59 = load i32, ptr %9, align 4
  %60 = add i32 %59, 1
  store i32 %60, ptr %9, align 4
  br label %36, !llvm.loop !10

61:                                               ; preds = %36
  call void @llvm.lifetime.end.p0(i64 4, ptr %9) #12
  call void @llvm.lifetime.end.p0(i64 8, ptr %8) #12
  br label %62

62:                                               ; preds = %61, %18
  call void @llvm.lifetime.end.p0(i64 8, ptr %7) #12
  ret void
}

; Function Attrs: nounwind uwtable
define dso_local ptr @psqlscan_extract_substring(ptr noundef %0, ptr noundef %1, i32 noundef %2) #0 {
  %4 = alloca ptr, align 8
  %5 = alloca ptr, align 8
  %6 = alloca i32, align 4
  %7 = alloca ptr, align 8
  %8 = alloca ptr, align 8
  %9 = alloca i32, align 4
  %10 = alloca i8, align 1
  store ptr %0, ptr %4, align 8
  store ptr %1, ptr %5, align 8
  store i32 %2, ptr %6, align 4
  call void @llvm.lifetime.start.p0(i64 8, ptr %7) #12
  %11 = load i32, ptr %6, align 4
  %12 = add i32 %11, 1
  %13 = sext i32 %12 to i64
  %14 = call ptr @pg_malloc(i64 noundef %13)
  store ptr %14, ptr %7, align 8
  %15 = load ptr, ptr %4, align 8
  %16 = getelementptr inbounds nuw %struct.PsqlScanStateData, ptr %15, i32 0, i32 7
  %17 = load i8, ptr %16, align 4, !range !6, !noundef !7
  %18 = trunc i8 %17 to i1
  br i1 %18, label %19, label %24

19:                                               ; preds = %3
  %20 = load ptr, ptr %7, align 8
  %21 = load ptr, ptr %5, align 8
  %22 = load i32, ptr %6, align 4
  %23 = sext i32 %22 to i64
  call void @llvm.memcpy.p0.p0.i64(ptr align 1 %20, ptr align 1 %21, i64 %23, i1 false)
  br label %66

24:                                               ; preds = %3
  call void @llvm.lifetime.start.p0(i64 8, ptr %8) #12
  %25 = load ptr, ptr %4, align 8
  %26 = getelementptr inbounds nuw %struct.PsqlScanStateData, ptr %25, i32 0, i32 10
  %27 = load ptr, ptr %26, align 8
  store ptr %27, ptr %8, align 8
  call void @llvm.lifetime.start.p0(i64 4, ptr %9) #12
  %28 = load ptr, ptr %5, align 8
  %29 = load ptr, ptr %4, align 8
  %30 = getelementptr inbounds nuw %struct.PsqlScanStateData, ptr %29, i32 0, i32 9
  %31 = load ptr, ptr %30, align 8
  %32 = ptrtoint ptr %28 to i64
  %33 = ptrtoint ptr %31 to i64
  %34 = sub i64 %32, %33
  %35 = load ptr, ptr %8, align 8
  %36 = getelementptr inbounds i8, ptr %35, i64 %34
  store ptr %36, ptr %8, align 8
  store i32 0, ptr %9, align 4
  br label %37

37:                                               ; preds = %62, %24
  %38 = load i32, ptr %9, align 4
  %39 = load i32, ptr %6, align 4
  %40 = icmp slt i32 %38, %39
  br i1 %40, label %41, label %65

41:                                               ; preds = %37
  call void @llvm.lifetime.start.p0(i64 1, ptr %10) #12
  %42 = load ptr, ptr %5, align 8
  %43 = load i32, ptr %9, align 4
  %44 = sext i32 %43 to i64
  %45 = getelementptr inbounds i8, ptr %42, i64 %44
  %46 = load i8, ptr %45, align 1
  store i8 %46, ptr %10, align 1
  %47 = load i8, ptr %10, align 1
  %48 = sext i8 %47 to i32
  %49 = icmp eq i32 %48, -1
  br i1 %49, label %50, label %56

50:                                               ; preds = %41
  %51 = load ptr, ptr %8, align 8
  %52 = load i32, ptr %9, align 4
  %53 = sext i32 %52 to i64
  %54 = getelementptr inbounds i8, ptr %51, i64 %53
  %55 = load i8, ptr %54, align 1
  store i8 %55, ptr %10, align 1
  br label %56

56:                                               ; preds = %50, %41
  %57 = load i8, ptr %10, align 1
  %58 = load ptr, ptr %7, align 8
  %59 = load i32, ptr %9, align 4
  %60 = sext i32 %59 to i64
  %61 = getelementptr inbounds i8, ptr %58, i64 %60
  store i8 %57, ptr %61, align 1
  call void @llvm.lifetime.end.p0(i64 1, ptr %10) #12
  br label %62

62:                                               ; preds = %56
  %63 = load i32, ptr %9, align 4
  %64 = add i32 %63, 1
  store i32 %64, ptr %9, align 4
  br label %37, !llvm.loop !11

65:                                               ; preds = %37
  call void @llvm.lifetime.end.p0(i64 4, ptr %9) #12
  call void @llvm.lifetime.end.p0(i64 8, ptr %8) #12
  br label %66

66:                                               ; preds = %65, %19
  %67 = load ptr, ptr %7, align 8
  %68 = load i32, ptr %6, align 4
  %69 = sext i32 %68 to i64
  %70 = getelementptr inbounds i8, ptr %67, i64 %69
  store i8 0, ptr %70, align 1
  %71 = load ptr, ptr %7, align 8
  call void @llvm.lifetime.end.p0(i64 8, ptr %7) #12
  ret ptr %71
}

; Function Attrs: nounwind uwtable
define dso_local void @psqlscan_escape_variable(ptr noundef %0, ptr noundef %1, i32 noundef %2, i32 noundef %3) #0 {
  %5 = alloca ptr, align 8
  %6 = alloca ptr, align 8
  %7 = alloca i32, align 4
  %8 = alloca i32, align 4
  %9 = alloca ptr, align 8
  %10 = alloca ptr, align 8
  store ptr %0, ptr %5, align 8
  store ptr %1, ptr %6, align 8
  store i32 %2, ptr %7, align 4
  store i32 %3, ptr %8, align 4
  call void @llvm.lifetime.start.p0(i64 8, ptr %9) #12
  call void @llvm.lifetime.start.p0(i64 8, ptr %10) #12
  %11 = load ptr, ptr %5, align 8
  %12 = load ptr, ptr %6, align 8
  %13 = getelementptr inbounds i8, ptr %12, i64 2
  %14 = load i32, ptr %7, align 4
  %15 = sub i32 %14, 3
  %16 = call ptr @psqlscan_extract_substring(ptr noundef %11, ptr noundef %13, i32 noundef %15)
  store ptr %16, ptr %9, align 8
  %17 = load ptr, ptr %5, align 8
  %18 = getelementptr inbounds nuw %struct.PsqlScanStateData, ptr %17, i32 0, i32 19
  %19 = load ptr, ptr %18, align 8
  %20 = getelementptr inbounds nuw %struct.PsqlScanCallbacks, ptr %19, i32 0, i32 0
  %21 = load ptr, ptr %20, align 8
  %22 = icmp ne ptr %21, null
  br i1 %22, label %23, label %35

23:                                               ; preds = %4
  %24 = load ptr, ptr %5, align 8
  %25 = getelementptr inbounds nuw %struct.PsqlScanStateData, ptr %24, i32 0, i32 19
  %26 = load ptr, ptr %25, align 8
  %27 = getelementptr inbounds nuw %struct.PsqlScanCallbacks, ptr %26, i32 0, i32 0
  %28 = load ptr, ptr %27, align 8
  %29 = load ptr, ptr %9, align 8
  %30 = load i32, ptr %8, align 4
  %31 = load ptr, ptr %5, align 8
  %32 = getelementptr inbounds nuw %struct.PsqlScanStateData, ptr %31, i32 0, i32 20
  %33 = load ptr, ptr %32, align 8
  %34 = call ptr %28(ptr noundef %29, i32 noundef %30, ptr noundef %33)
  store ptr %34, ptr %10, align 8
  br label %36

35:                                               ; preds = %4
  store ptr null, ptr %10, align 8
  br label %36

36:                                               ; preds = %35, %23
  %37 = load ptr, ptr %9, align 8
  call void @free(ptr noundef %37) #12
  %38 = load ptr, ptr %10, align 8
  %39 = icmp ne ptr %38, null
  br i1 %39, label %40, label %46

40:                                               ; preds = %36
  %41 = load ptr, ptr %5, align 8
  %42 = getelementptr inbounds nuw %struct.PsqlScanStateData, ptr %41, i32 0, i32 1
  %43 = load ptr, ptr %42, align 8
  %44 = load ptr, ptr %10, align 8
  call void @appendPQExpBufferStr(ptr noundef %43, ptr noundef %44)
  %45 = load ptr, ptr %10, align 8
  call void @free(ptr noundef %45) #12
  br label %50

46:                                               ; preds = %36
  %47 = load ptr, ptr %5, align 8
  %48 = load ptr, ptr %6, align 8
  %49 = load i32, ptr %7, align 4
  call void @psqlscan_emit(ptr noundef %47, ptr noundef %48, i32 noundef %49)
  br label %50

50:                                               ; preds = %46, %40
  call void @llvm.lifetime.end.p0(i64 8, ptr %10) #12
  call void @llvm.lifetime.end.p0(i64 8, ptr %9) #12
  ret void
}