; Function Attrs: nounwind uwtable
define dso_local void @psqlscan_escape_variable(ptr noundef readonly captures(none) %0, ptr noundef %1, i32 noundef %2, i32 noundef %3) local_unnamed_addr #0 {
  %5 = getelementptr inbounds nuw i8, ptr %1, i64 2
  %6 = add i32 %2, -3
  %7 = add i32 %2, -2
  %8 = sext i32 %7 to i64
  %9 = tail call ptr @pg_malloc(i64 noundef %8) #27
  %10 = getelementptr inbounds nuw i8, ptr %0, i64 52
  %11 = load i8, ptr %10, align 4, !range !6, !noundef !7
  %12 = trunc nuw i8 %11 to i1
  br i1 %12, label %13, label %15

13:                                               ; preds = %4
  %14 = sext i32 %6 to i64
  tail call void @llvm.memcpy.p0.p0.i64(ptr align 1 %9, ptr nonnull align 1 %5, i64 %14, i1 false)
  br label %psqlscan_extract_substring.exit

15:                                               ; preds = %4
  %16 = getelementptr inbounds nuw i8, ptr %0, i64 64
  %17 = load ptr, ptr %16, align 8
  %18 = getelementptr inbounds nuw i8, ptr %0, i64 56
  %19 = load ptr, ptr %18, align 8
  %20 = ptrtoint ptr %5 to i64
  %21 = ptrtoint ptr %19 to i64
  %22 = sub i64 %20, %21
  %23 = getelementptr inbounds i8, ptr %17, i64 %22
  %24 = icmp sgt i32 %6, 0
  br i1 %24, label %.lr.ph.preheader.i, label %psqlscan_extract_substring.exit

.lr.ph.preheader.i:                               ; preds = %15
  %wide.trip.count.i = zext nneg i32 %6 to i64
  br label %.lr.ph.i

.lr.ph.i:                                         ; preds = %31, %.lr.ph.preheader.i
  %indvars.iv.i = phi i64 [ 0, %.lr.ph.preheader.i ], [ %indvars.iv.next.i, %31 ]
  %25 = getelementptr inbounds nuw i8, ptr %5, i64 %indvars.iv.i
  %26 = load i8, ptr %25, align 1
  %27 = icmp eq i8 %26, -1
  br i1 %27, label %28, label %31

28:                                               ; preds = %.lr.ph.i
  %29 = getelementptr inbounds nuw i8, ptr %23, i64 %indvars.iv.i
  %30 = load i8, ptr %29, align 1
  br label %31

31:                                               ; preds = %28, %.lr.ph.i
  %.0.i = phi i8 [ %30, %28 ], [ %26, %.lr.ph.i ]
  %32 = getelementptr inbounds nuw i8, ptr %9, i64 %indvars.iv.i
  store i8 %.0.i, ptr %32, align 1
  %indvars.iv.next.i = add nuw nsw i64 %indvars.iv.i, 1
  %exitcond.not.i = icmp eq i64 %indvars.iv.next.i, %wide.trip.count.i
  br i1 %exitcond.not.i, label %psqlscan_extract_substring.exit, label %.lr.ph.i, !llvm.loop !9

psqlscan_extract_substring.exit:                  ; preds = %31, %13, %15
  %33 = sext i32 %6 to i64
  %34 = getelementptr inbounds i8, ptr %9, i64 %33
  store i8 0, ptr %34, align 1
  %35 = getelementptr inbounds nuw i8, ptr %0, i64 112
  %36 = load ptr, ptr %35, align 8
  %37 = load ptr, ptr %36, align 8
  %.not = icmp eq ptr %37, null
  br i1 %.not, label %.thread, label %38

.thread:                                          ; preds = %psqlscan_extract_substring.exit
  tail call void @free(ptr noundef nonnull %9) #27
  br label %45

38:                                               ; preds = %psqlscan_extract_substring.exit
  %39 = getelementptr inbounds nuw i8, ptr %0, i64 120
  %40 = load ptr, ptr %39, align 8
  %41 = tail call ptr %37(ptr noundef nonnull %9, i32 noundef %3, ptr noundef %40) #27
  tail call void @free(ptr noundef nonnull %9) #27
  %.not16 = icmp eq ptr %41, null
  br i1 %.not16, label %45, label %42

42:                                               ; preds = %38
  %43 = getelementptr inbounds nuw i8, ptr %0, i64 8
  %44 = load ptr, ptr %43, align 8
  tail call void @appendPQExpBufferStr(ptr noundef %44, ptr noundef nonnull %41) #27
  tail call void @free(ptr noundef nonnull %41) #27
  br label %psqlscan_emit.exit

45:                                               ; preds = %.thread, %38
  %46 = getelementptr inbounds nuw i8, ptr %0, i64 8
  %47 = load ptr, ptr %46, align 8
  %48 = load i8, ptr %10, align 4, !range !6, !noundef !7
  %49 = trunc nuw i8 %48 to i1
  br i1 %49, label %50, label %52

50:                                               ; preds = %45
  %51 = sext i32 %2 to i64
  tail call void @appendBinaryPQExpBuffer(ptr noundef %47, ptr noundef %1, i64 noundef %51) #27
  br label %psqlscan_emit.exit

52:                                               ; preds = %45
  %53 = getelementptr inbounds nuw i8, ptr %0, i64 64
  %54 = load ptr, ptr %53, align 8
  %55 = getelementptr inbounds nuw i8, ptr %0, i64 56
  %56 = load ptr, ptr %55, align 8
  %57 = ptrtoint ptr %1 to i64
  %58 = ptrtoint ptr %56 to i64
  %59 = sub i64 %57, %58
  %60 = getelementptr inbounds i8, ptr %54, i64 %59
  %61 = icmp sgt i32 %2, 0
  br i1 %61, label %.lr.ph.preheader.i17, label %psqlscan_emit.exit

.lr.ph.preheader.i17:                             ; preds = %52
  %wide.trip.count.i18 = zext nneg i32 %2 to i64
  br label %.lr.ph.i19

.lr.ph.i19:                                       ; preds = %68, %.lr.ph.preheader.i17
  %indvars.iv.i20 = phi i64 [ 0, %.lr.ph.preheader.i17 ], [ %indvars.iv.next.i22, %68 ]
  %62 = getelementptr inbounds nuw i8, ptr %1, i64 %indvars.iv.i20
  %63 = load i8, ptr %62, align 1
  %64 = icmp eq i8 %63, -1
  br i1 %64, label %65, label %68

65:                                               ; preds = %.lr.ph.i19
  %66 = getelementptr inbounds nuw i8, ptr %60, i64 %indvars.iv.i20
  %67 = load i8, ptr %66, align 1
  br label %68

68:                                               ; preds = %65, %.lr.ph.i19
  %.0.i21 = phi i8 [ %67, %65 ], [ %63, %.lr.ph.i19 ]
  tail call void @appendPQExpBufferChar(ptr noundef %47, i8 noundef signext %.0.i21) #27
  %indvars.iv.next.i22 = add nuw nsw i64 %indvars.iv.i20, 1
  %exitcond.not.i23 = icmp eq i64 %indvars.iv.next.i22, %wide.trip.count.i18
  br i1 %exitcond.not.i23, label %psqlscan_emit.exit, label %.lr.ph.i19, !llvm.loop !8

psqlscan_emit.exit:                               ; preds = %68, %52, %50, %42
  ret void
}